target datalayout = "e-m:e-p270:32:32-p271:32:32-p272:64:64-i64:64-i128:128-f80:128-n8:16:32:64-S128"
target triple = "x86_64-pc-linux-gnu"

%"class.sls::bv_terms" = type { ptr, ptr, %class.bv_util, %class.ref_vector, %class.vector.0 }
%class.bv_util = type { %class.bv_recognizers, ptr, ptr }
%class.bv_recognizers = type { i32 }
%class.ref_vector = type { %class.ref_vector_core }
%class.ref_vector_core = type { %class.ref_manager_wrapper, %class.ptr_vector }
%class.ref_manager_wrapper = type { ptr }
%class.ptr_vector = type { %class.vector }
%class.vector = type { ptr }
%class.vector.0 = type { ptr }
%class.ast = type { i32, i32, i32, i32 }

; Function Attrs: mustprogress uwtable
define linkonce_odr hidden void @_ZN6vectorIP4exprLb0EjE11free_memoryEv(ptr noundef nonnull align 8 dereferenceable(8) %0) #4 comdat align 2 {
  %2 = alloca ptr, align 8
  store ptr %0, ptr %2, align 8, !tbaa !112
  %3 = load ptr, ptr %2, align 8
  %4 = getelementptr inbounds nuw %class.vector, ptr %3, i32 0, i32 0
  %5 = load ptr, ptr %4, align 8, !tbaa !114
  %6 = getelementptr inbounds i32, ptr %5, i64 -2
  call void @_ZN6memory10deallocateEPv(ptr noundef %6)
  ret void
}

; Function Attrs: noinline noreturn nounwind uwtable
define linkonce_odr hidden void @__clang_call_terminate(ptr noundef %0) #10 comdat {
  %2 = call ptr @__cxa_begin_catch(ptr %0) #3
  call void @_ZSt9terminatev() #19
  unreachable
}

; Function Attrs: mustprogress uwtable
define linkonce_odr hidden void @_ZN6vectorIP4exprLb0EjE7destroyEv(ptr noundef nonnull align 8 dereferenceable(8) %0) #4 comdat align 2 {
  %2 = alloca ptr, align 8
  store ptr %0, ptr %2, align 8, !tbaa !112
  %3 = load ptr, ptr %2, align 8
  %4 = getelementptr inbounds nuw %class.vector, ptr %3, i32 0, i32 0
  %5 = load ptr, ptr %4, align 8, !tbaa !114
  %6 = icmp ne ptr %5, null
  br i1 %6, label %7, label %8

7:                                                ; preds = %1
  call void @_ZN6vectorIP4exprLb0EjE11free_memoryEv(ptr noundef nonnull align 8 dereferenceable(8) %3)
  br label %8

8:                                                ; preds = %7, %1
  ret void
}

; Function Attrs: mustprogress nounwind uwtable
define linkonce_odr hidden void @_ZN6vectorIP4exprLb0EjEC2Ev(ptr noundef nonnull align 8 dereferenceable(8) %0) unnamed_addr #5 comdat align 2 {
  %2 = alloca ptr, align 8
  store ptr %0, ptr %2, align 8, !tbaa !112
  %3 = load ptr, ptr %2, align 8
  %4 = getelementptr inbounds nuw %class.vector, ptr %3, i32 0, i32 0
  store ptr null, ptr %4, align 8, !tbaa !114
  ret void
}

; Function Attrs: mustprogress nounwind uwtable
define linkonce_odr hidden void @_ZN6vectorIP4exprLb0EjED2Ev(ptr noundef nonnull align 8 dereferenceable(8) %0) unnamed_addr #5 comdat align 2 personality ptr @__gxx_personality_v0 {
  %2 = alloca ptr, align 8
  store ptr %0, ptr %2, align 8, !tbaa !112
  %3 = load ptr, ptr %2, align 8
  invoke void @_ZN6vectorIP4exprLb0EjE7destroyEv(ptr noundef nonnull align 8 dereferenceable(8) %3)
          to label %4 unwind label %5

4:                                                ; preds = %1
  ret void

5:                                                ; preds = %1
  %6 = landingpad { ptr, i32 }
          catch ptr null
  %7 = extractvalue { ptr, i32 } %6, 0
  call void @__clang_call_terminate(ptr %7) #19
  unreachable
}

; Function Attrs: mustprogress nounwind uwtable
define linkonce_odr hidden noundef ptr @_ZN6vectorI10ptr_vectorI4exprELb1EjE3endEv(ptr noundef nonnull align 8 dereferenceable(8) %0) #5 comdat align 2 {
  %2 = alloca ptr, align 8
  store ptr %0, ptr %2, align 8, !tbaa !55
  %3 = load ptr, ptr %2, align 8
  %4 = getelementptr inbounds nuw %class.vector.0, ptr %3, i32 0, i32 0
  %5 = load ptr, ptr %4, align 8, !tbaa !57
  %6 = call noundef i32 @_ZNK6vectorI10ptr_vectorI4exprELb1EjE4sizeEv(ptr noundef nonnull align 8 dereferenceable(8) %3)
  %7 = zext i32 %6 to i64
  %8 = getelementptr inbounds nuw %class.ptr_vector, ptr %5, i64 %7
  ret ptr %8
}

; Function Attrs: mustprogress nounwind uwtable
define linkonce_odr hidden void @_ZN10ptr_vectorI4exprEC2Ev(ptr noundef nonnull align 8 dereferenceable(8) %0) unnamed_addr #5 comdat align 2 {
  %2 = alloca ptr, align 8
  store ptr %0, ptr %2, align 8, !tbaa !115
  %3 = load ptr, ptr %2, align 8
  call void @_ZN6vectorIP4exprLb0EjEC2Ev(ptr noundef nonnull align 8 dereferenceable(8) %3) #3
  ret void
}

; Function Attrs: mustprogress nounwind uwtable
define linkonce_odr hidden noundef i32 @_ZNK6vectorI10ptr_vectorI4exprELb1EjE8capacityEv(ptr noundef nonnull align 8 dereferenceable(8) %0) #5 comdat align 2 {
  %2 = alloca i32, align 4
  %3 = alloca ptr, align 8
  store ptr %0, ptr %3, align 8, !tbaa !55
  %4 = load ptr, ptr %3, align 8
  %5 = getelementptr inbounds nuw %class.vector.0, ptr %4, i32 0, i32 0
  %6 = load ptr, ptr %5, align 8, !tbaa !57
  %7 = icmp eq ptr %6, null
  br i1 %7, label %8, label %9

8:                                                ; preds = %1
  store i32 0, ptr %2, align 4
  br label %14

9:                                                ; preds = %1
  %10 = getelementptr inbounds nuw %class.vector.0, ptr %4, i32 0, i32 0
  %11 = load ptr, ptr %10, align 8, !tbaa !57
  %12 = getelementptr inbounds i32, ptr %11, i64 -2
  %13 = load i32, ptr %12, align 4, !tbaa !82
  store i32 %13, ptr %2, align 4
  br label %14

14:                                               ; preds = %9, %8
  %15 = load i32, ptr %2, align 4
  ret i32 %15
}

; Function Attrs: mustprogress uwtable
define linkonce_odr hidden void @_ZN6vectorI10ptr_vectorI4exprELb1EjE6shrinkEj(ptr noundef nonnull align 8 dereferenceable(8) %0, i32 noundef %1) #4 comdat align 2 {
  %3 = alloca ptr, align 8
  %4 = alloca i32, align 4
  %5 = alloca ptr, align 8
  %6 = alloca ptr, align 8
  store ptr %0, ptr %3, align 8, !tbaa !55
  store i32 %1, ptr %4, align 4, !tbaa !82
  %7 = load ptr, ptr %3, align 8
  %8 = getelementptr inbounds nuw %class.vector.0, ptr %7, i32 0, i32 0
  %9 = load ptr, ptr %8, align 8, !tbaa !57
  %10 = icmp ne ptr %9, null
  br i1 %10, label %11, label %32

11:                                               ; preds = %2
  call void @llvm.lifetime.start.p0(i64 8, ptr %5) #3
  %12 = getelementptr inbounds nuw %class.vector.0, ptr %7, i32 0, i32 0
  %13 = load ptr, ptr %12, align 8, !tbaa !57
  %14 = load i32, ptr %4, align 4, !tbaa !82
  %15 = zext i32 %14 to i64
  %16 = getelementptr inbounds nuw %class.ptr_vector, ptr %13, i64 %15
  store ptr %16, ptr %5, align 8, !tbaa !115
  call void @llvm.lifetime.start.p0(i64 8, ptr %6) #3
  %17 = call noundef ptr @_ZN6vectorI10ptr_vectorI4exprELb1EjE3endEv(ptr noundef nonnull align 8 dereferenceable(8) %7)
  store ptr %17, ptr %6, align 8, !tbaa !115
  br label %18

18:                                               ; preds = %24, %11
  %19 = load ptr, ptr %5, align 8, !tbaa !115
  %20 = load ptr, ptr %6, align 8, !tbaa !115
  %21 = icmp ne ptr %19, %20
  br i1 %21, label %22, label %27

22:                                               ; preds = %18
  %23 = load ptr, ptr %5, align 8, !tbaa !115
  call void @_ZN6vectorIP4exprLb0EjED2Ev(ptr noundef nonnull align 8 dereferenceable(8) %23) #3
  br label %24

24:                                               ; preds = %22
  %25 = load ptr, ptr %5, align 8, !tbaa !115
  %26 = getelementptr inbounds nuw %class.ptr_vector, ptr %25, i32 1
  store ptr %26, ptr %5, align 8, !tbaa !115
  br label %18, !llvm.loop !229

27:                                               ; preds = %18
  call void @llvm.lifetime.end.p0(i64 8, ptr %6) #3
  call void @llvm.lifetime.end.p0(i64 8, ptr %5) #3
  %28 = load i32, ptr %4, align 4, !tbaa !82
  %29 = getelementptr inbounds nuw %class.vector.0, ptr %7, i32 0, i32 0
  %30 = load ptr, ptr %29, align 8, !tbaa !57
  %31 = getelementptr inbounds i32, ptr %30, i64 -1
  store i32 %28, ptr %31, align 4, !tbaa !82
  br label %33

32:                                               ; preds = %2
  br label %33

33:                                               ; preds = %32, %27
  ret void
}

; Function Attrs: mustprogress uwtable
define linkonce_odr hidden void @_ZN6vectorI10ptr_vectorI4exprELb1EjE6resizeEj(ptr noundef nonnull align 8 dereferenceable(8) %0, i32 noundef %1) #4 comdat align 2 {
  %3 = alloca ptr, align 8
  %4 = alloca i32, align 4
  %5 = alloca i32, align 4
  %6 = alloca i32, align 4
  %7 = alloca ptr, align 8
  %8 = alloca ptr, align 8
  store ptr %0, ptr %3, align 8, !tbaa !55
  store i32 %1, ptr %4, align 4, !tbaa !82
  %9 = load ptr, ptr %3, align 8
  call void @llvm.lifetime.start.p0(i64 4, ptr %5) #3
  %10 = call noundef i32 @_ZNK6vectorI10ptr_vectorI4exprELb1EjE4sizeEv(ptr noundef nonnull align 8 dereferenceable(8) %9)
  store i32 %10, ptr %5, align 4, !tbaa !82
  %11 = load i32, ptr %4, align 4, !tbaa !82
  %12 = load i32, ptr %5, align 4, !tbaa !82
  %13 = icmp ule i32 %11, %12
  br i1 %13, label %14, label %16

14:                                               ; preds = %2
  %15 = load i32, ptr %4, align 4, !tbaa !82
  call void @_ZN6vectorI10ptr_vectorI4exprELb1EjE6shrinkEj(ptr noundef nonnull align 8 dereferenceable(8) %9, i32 noundef %15)
  store i32 1, ptr %6, align 4
  br label %47

16:                                               ; preds = %2
  br label %17

17:                                               ; preds = %21, %16
  %18 = load i32, ptr %4, align 4, !tbaa !82
  %19 = call noundef i32 @_ZNK6vectorI10ptr_vectorI4exprELb1EjE8capacityEv(ptr noundef nonnull align 8 dereferenceable(8) %9)
  %20 = icmp ugt i32 %18, %19
  br i1 %20, label %21, label %22

21:                                               ; preds = %17
  call void @_ZN6vectorI10ptr_vectorI4exprELb1EjE13expand_vectorEv(ptr noundef nonnull align 8 dereferenceable(8) %9)
  br label %17, !llvm.loop !227

22:                                               ; preds = %17
  %23 = load i32, ptr %4, align 4, !tbaa !82
  %24 = getelementptr inbounds nuw %class.vector.0, ptr %9, i32 0, i32 0
  %25 = load ptr, ptr %24, align 8, !tbaa !57
  %26 = getelementptr inbounds i32, ptr %25, i64 -1
  store i32 %23, ptr %26, align 4, !tbaa !82
  call void @llvm.lifetime.start.p0(i64 8, ptr %7) #3
  %27 = getelementptr inbounds nuw %class.vector.0, ptr %9, i32 0, i32 0
  %28 = load ptr, ptr %27, align 8, !tbaa !57
  %29 = load i32, ptr %5, align 4, !tbaa !82
  %30 = zext i32 %29 to i64
  %31 = getelementptr inbounds nuw %class.ptr_vector, ptr %28, i64 %30
  store ptr %31, ptr %7, align 8, !tbaa !115
  call void @llvm.lifetime.start.p0(i64 8, ptr %8) #3
  %32 = getelementptr inbounds nuw %class.vector.0, ptr %9, i32 0, i32 0
  %33 = load ptr, ptr %32, align 8, !tbaa !57
  %34 = load i32, ptr %4, align 4, !tbaa !82
  %35 = zext i32 %34 to i64
  %36 = getelementptr inbounds nuw %class.ptr_vector, ptr %33, i64 %35
  store ptr %36, ptr %8, align 8, !tbaa !115
  br label %37

37:                                               ; preds = %43, %22
  %38 = load ptr, ptr %7, align 8, !tbaa !115
  %39 = load ptr, ptr %8, align 8, !tbaa !115
  %40 = icmp ne ptr %38, %39
  br i1 %40, label %41, label %46

41:                                               ; preds = %37
  %42 = load ptr, ptr %7, align 8, !tbaa !115
  call void @llvm.memset.p0.i64(ptr align 8 %42, i8 0, i64 8, i1 false)
  call void @_ZN10ptr_vectorI4exprEC2Ev(ptr noundef nonnull align 8 dereferenceable(8) %42) #3
  br label %43

43:                                               ; preds = %41
  %44 = load ptr, ptr %7, align 8, !tbaa !115
  %45 = getelementptr inbounds nuw %class.ptr_vector, ptr %44, i32 1
  store ptr %45, ptr %7, align 8, !tbaa !115
  br label %37, !llvm.loop !228

46:                                               ; preds = %37
  call void @llvm.lifetime.end.p0(i64 8, ptr %8) #3
  call void @llvm.lifetime.end.p0(i64 8, ptr %7) #3
  store i32 0, ptr %6, align 4
  br label %47

47:                                               ; preds = %46, %14
  call void @llvm.lifetime.end.p0(i64 4, ptr %5) #3
  %48 = load i32, ptr %6, align 4
  switch i32 %48, label %50 [
    i32 0, label %49
    i32 1, label %49
  ]

49:                                               ; preds = %47, %47
  ret void

50:                                               ; preds = %47
  unreachable
}

; Function Attrs: mustprogress nounwind uwtable
define linkonce_odr hidden noundef i32 @_ZNK6vectorI10ptr_vectorI4exprELb1EjE4sizeEv(ptr noundef nonnull align 8 dereferenceable(8) %0) #5 comdat align 2 {
  %2 = alloca i32, align 4
  %3 = alloca ptr, align 8
  store ptr %0, ptr %3, align 8, !tbaa !55
  %4 = load ptr, ptr %3, align 8
  %5 = getelementptr inbounds nuw %class.vector.0, ptr %4, i32 0, i32 0
  %6 = load ptr, ptr %5, align 8, !tbaa !57
  %7 = icmp eq ptr %6, null
  br i1 %7, label %8, label %9

8:                                                ; preds = %1
  store i32 0, ptr %2, align 4
  br label %14

9:                                                ; preds = %1
  %10 = getelementptr inbounds nuw %class.vector.0, ptr %4, i32 0, i32 0
  %11 = load ptr, ptr %10, align 8, !tbaa !57
  %12 = getelementptr inbounds i32, ptr %11, i64 -1
  %13 = load i32, ptr %12, align 4, !tbaa !82
  store i32 %13, ptr %2, align 4
  br label %14

14:                                               ; preds = %9, %8
  %15 = load i32, ptr %2, align 4
  ret i32 %15
}

; Function Attrs: mustprogress nounwind uwtable
define linkonce_odr hidden noundef zeroext i1 @_ZNK6vectorIP4exprLb0EjE5emptyEv(ptr noundef nonnull align 8 dereferenceable(8) %0) #5 comdat align 2 {
  %2 = alloca ptr, align 8
  store ptr %0, ptr %2, align 8, !tbaa !112
  %3 = load ptr, ptr %2, align 8
  %4 = getelementptr inbounds nuw %class.vector, ptr %3, i32 0, i32 0
  %5 = load ptr, ptr %4, align 8, !tbaa !114
  %6 = icmp eq ptr %5, null
  br i1 %6, label %13, label %7

7:                                                ; preds = %1
  %8 = getelementptr inbounds nuw %class.vector, ptr %3, i32 0, i32 0
  %9 = load ptr, ptr %8, align 8, !tbaa !114
  %10 = getelementptr inbounds i32, ptr %9, i64 -1
  %11 = load i32, ptr %10, align 4, !tbaa !82
  %12 = icmp eq i32 %11, 0
  br label %13

13:                                               ; preds = %7, %1
  %14 = phi i1 [ true, %1 ], [ %12, %7 ]
  ret i1 %14
}

; Function Attrs: mustprogress nounwind uwtable
define linkonce_odr hidden noundef nonnull align 8 dereferenceable(8) ptr @_ZN6vectorI10ptr_vectorI4exprELb1EjEixEj(ptr noundef nonnull align 8 dereferenceable(8) %0, i32 noundef %1) #5 comdat align 2 {
  %3 = alloca ptr, align 8
  %4 = alloca i32, align 4
  store ptr %0, ptr %3, align 8, !tbaa !55
  store i32 %1, ptr %4, align 4, !tbaa !82
  %5 = load ptr, ptr %3, align 8
  %6 = getelementptr inbounds nuw %class.vector.0, ptr %5, i32 0, i32 0
  %7 = load ptr, ptr %6, align 8, !tbaa !57
  %8 = load i32, ptr %4, align 4, !tbaa !82
  %9 = zext i32 %8 to i64
  %10 = getelementptr inbounds nuw %class.ptr_vector, ptr %7, i64 %9
  ret ptr %10
}

; Function Attrs: mustprogress uwtable
define linkonce_odr hidden void @_ZN6vectorI10ptr_vectorI4exprELb1EjE7reserveEj(ptr noundef nonnull align 8 dereferenceable(8) %0, i32 noundef %1) #4 comdat align 2 {
  %3 = alloca ptr, align 8
  %4 = alloca i32, align 4
  store ptr %0, ptr %3, align 8, !tbaa !55
  store i32 %1, ptr %4, align 4, !tbaa !82
  %5 = load ptr, ptr %3, align 8
  %6 = load i32, ptr %4, align 4, !tbaa !82
  %7 = call noundef i32 @_ZNK6vectorI10ptr_vectorI4exprELb1EjE4sizeEv(ptr noundef nonnull align 8 dereferenceable(8) %5)
  %8 = icmp ugt i32 %6, %7
  br i1 %8, label %9, label %11

9:                                                ; preds = %2
  %10 = load i32, ptr %4, align 4, !tbaa !82
  call void @_ZN6vectorI10ptr_vectorI4exprELb1EjE6resizeEj(ptr noundef nonnull align 8 dereferenceable(8) %5, i32 noundef %10)
  br label %11

11:                                               ; preds = %9, %2
  ret void
}

; Function Attrs: mustprogress nounwind uwtable
define linkonce_odr hidden noundef i32 @_ZNK3ast6get_idEv(ptr noundef nonnull align 4 dereferenceable(16) %0) #5 comdat align 2 {
  %2 = alloca ptr, align 8
  store ptr %0, ptr %2, align 8, !tbaa !108
  %3 = load ptr, ptr %2, align 8
  %4 = getelementptr inbounds nuw %class.ast, ptr %3, i32 0, i32 0
  %5 = load i32, ptr %4, align 4, !tbaa !110
  ret i32 %5
}

; Function Attrs: mustprogress uwtable
define hidden noundef nonnull align 8 dereferenceable(8) ptr @_ZN3sls8bv_terms15uninterp_occursEP4expr(ptr noundef nonnull align 8 dereferenceable(64) %0, ptr noundef %1) #4 align 2 {
  %3 = alloca ptr, align 8
  %4 = alloca ptr, align 8
  %5 = alloca ptr, align 8
  %6 = alloca i32, align 4
  %7 = alloca i32, align 4
  store ptr %0, ptr %4, align 8, !tbaa !3
  store ptr %1, ptr %5, align 8, !tbaa !58
  %8 = load ptr, ptr %4, align 8
  call void @llvm.lifetime.start.p0(i64 4, ptr %6) #3
  %9 = load ptr, ptr %5, align 8, !tbaa !58
  %10 = call noundef i32 @_ZNK3ast6get_idEv(ptr noundef nonnull align 4 dereferenceable(16) %9)
  store i32 %10, ptr %6, align 4, !tbaa !82
  %11 = getelementptr inbounds nuw %"class.sls::bv_terms", ptr %8, i32 0, i32 4
  %12 = load i32, ptr %6, align 4, !tbaa !82
  %13 = add i32 %12, 1
  call void @_ZN6vectorI10ptr_vectorI4exprELb1EjE7reserveEj(ptr noundef nonnull align 8 dereferenceable(8) %11, i32 noundef %13)
  %14 = getelementptr inbounds nuw %"class.sls::bv_terms", ptr %8, i32 0, i32 4
  %15 = load i32, ptr %6, align 4, !tbaa !82
  %16 = call noundef nonnull align 8 dereferenceable(8) ptr @_ZN6vectorI10ptr_vectorI4exprELb1EjEixEj(ptr noundef nonnull align 8 dereferenceable(8) %14, i32 noundef %15)
  %17 = call noundef zeroext i1 @_ZNK6vectorIP4exprLb0EjE5emptyEv(ptr noundef nonnull align 8 dereferenceable(8) %16)
  br i1 %17, label %22, label %18

18:                                               ; preds = %2
  %19 = getelementptr inbounds nuw %"class.sls::bv_terms", ptr %8, i32 0, i32 4
  %20 = load i32, ptr %6, align 4, !tbaa !82
  %21 = call noundef nonnull align 8 dereferenceable(8) ptr @_ZN6vectorI10ptr_vectorI4exprELb1EjEixEj(ptr noundef nonnull align 8 dereferenceable(8) %19, i32 noundef %20)
  store ptr %21, ptr %3, align 8
  store i32 1, ptr %7, align 4
  br label %27

22:                                               ; preds = %2
  %23 = load ptr, ptr %5, align 8, !tbaa !58
  call void @_ZN3sls8bv_terms17register_uninterpEP4expr(ptr noundef nonnull align 8 dereferenceable(64) %8, ptr noundef %23)
  %24 = getelementptr inbounds nuw %"class.sls::bv_terms", ptr %8, i32 0, i32 4
  %25 = load i32, ptr %6, align 4, !tbaa !82
  %26 = call noundef nonnull align 8 dereferenceable(8) ptr @_ZN6vectorI10ptr_vectorI4exprELb1EjEixEj(ptr noundef nonnull align 8 dereferenceable(8) %24, i32 noundef %25)
  store ptr %26, ptr %3, align 8
  store i32 1, ptr %7, align 4
  br label %27

27:                                               ; preds = %22, %18
  call void @llvm.lifetime.end.p0(i64 4, ptr %6) #3
  %28 = load ptr, ptr %3, align 8
  ret ptr %28
}