; Function Attrs: mustprogress uwtable
define hidden noundef nonnull align 8 dereferenceable(8) ptr @_ZN3sls8bv_terms15uninterp_occursEP4expr(ptr noundef nonnull align 8 dereferenceable(64) %0, ptr noundef readonly captures(none) %1) local_unnamed_addr #3 align 2 personality ptr @__gxx_personality_v0 {
  %3 = load i32, ptr %1, align 4, !tbaa !137
  %4 = getelementptr inbounds nuw i8, ptr %0, i64 56
  %5 = add i32 %3, 1
  %6 = load ptr, ptr %4, align 8, !tbaa !138
  %7 = icmp eq ptr %6, null
  br i1 %7, label %_ZNK6vectorI10ptr_vectorI4exprELb1EjE4sizeEv.exit.i, label %_ZNK6vectorI10ptr_vectorI4exprELb1EjE4sizeEv.exit.thread.i

_ZNK6vectorI10ptr_vectorI4exprELb1EjE4sizeEv.exit.i: ; preds = %2
  %.not.i = icmp ne i32 %5, 0
  tail call void @llvm.assume(i1 %.not.i)
  br label %_ZNK6vectorI10ptr_vectorI4exprELb1EjE4sizeEv.exit.i.i.preheader

_ZNK6vectorI10ptr_vectorI4exprELb1EjE4sizeEv.exit.thread.i: ; preds = %2
  %8 = getelementptr inbounds i8, ptr %6, i64 -4
  %9 = load i32, ptr %8, align 4, !tbaa !60
  %10 = icmp ugt i32 %5, %9
  br i1 %10, label %_ZNK6vectorI10ptr_vectorI4exprELb1EjE4sizeEv.exit.i.i.preheader, label %_ZN6vectorI10ptr_vectorI4exprELb1EjE7reserveEj.exit

_ZNK6vectorI10ptr_vectorI4exprELb1EjE4sizeEv.exit.i.i.preheader: ; preds = %_ZNK6vectorI10ptr_vectorI4exprELb1EjE4sizeEv.exit.i, %_ZNK6vectorI10ptr_vectorI4exprELb1EjE4sizeEv.exit.thread.i
  %.ph = phi ptr [ %6, %_ZNK6vectorI10ptr_vectorI4exprELb1EjE4sizeEv.exit.thread.i ], [ null, %_ZNK6vectorI10ptr_vectorI4exprELb1EjE4sizeEv.exit.i ]
  %.0.i16.i.i.ph = phi i32 [ %9, %_ZNK6vectorI10ptr_vectorI4exprELb1EjE4sizeEv.exit.thread.i ], [ 0, %_ZNK6vectorI10ptr_vectorI4exprELb1EjE4sizeEv.exit.i ]
  br label %_ZNK6vectorI10ptr_vectorI4exprELb1EjE4sizeEv.exit.i.i

_ZNK6vectorI10ptr_vectorI4exprELb1EjE4sizeEv.exit.i.i: ; preds = %_ZNK6vectorI10ptr_vectorI4exprELb1EjE4sizeEv.exit.i.i.preheader, %_ZNK6vectorI10ptr_vectorI4exprELb1EjE8capacityEv.exit.thread.i.i
  %11 = phi ptr [ %.pr.pre.i.i, %_ZNK6vectorI10ptr_vectorI4exprELb1EjE8capacityEv.exit.thread.i.i ], [ %.ph, %_ZNK6vectorI10ptr_vectorI4exprELb1EjE4sizeEv.exit.i.i.preheader ]
  %12 = icmp eq ptr %11, null
  br i1 %12, label %_ZNK6vectorI10ptr_vectorI4exprELb1EjE8capacityEv.exit.thread.i.i, label %_ZNK6vectorI10ptr_vectorI4exprELb1EjE8capacityEv.exit.i.i

_ZNK6vectorI10ptr_vectorI4exprELb1EjE8capacityEv.exit.i.i: ; preds = %_ZNK6vectorI10ptr_vectorI4exprELb1EjE4sizeEv.exit.i.i
  %13 = getelementptr inbounds i8, ptr %11, i64 -8
  %14 = load i32, ptr %13, align 4, !tbaa !60
  %15 = icmp ugt i32 %5, %14
  br i1 %15, label %_ZNK6vectorI10ptr_vectorI4exprELb1EjE8capacityEv.exit.thread.i.i, label %16

_ZNK6vectorI10ptr_vectorI4exprELb1EjE8capacityEv.exit.thread.i.i: ; preds = %_ZNK6vectorI10ptr_vectorI4exprELb1EjE8capacityEv.exit.i.i, %_ZNK6vectorI10ptr_vectorI4exprELb1EjE4sizeEv.exit.i.i
  tail call void @_ZN6vectorI10ptr_vectorI4exprELb1EjE13expand_vectorEv(ptr noundef nonnull align 8 dereferenceable(8) %4)
  %.pr.pre.i.i = load ptr, ptr %4, align 8, !tbaa !138
  br label %_ZNK6vectorI10ptr_vectorI4exprELb1EjE4sizeEv.exit.i.i, !llvm.loop !139

16:                                               ; preds = %_ZNK6vectorI10ptr_vectorI4exprELb1EjE8capacityEv.exit.i.i
  %17 = getelementptr inbounds i8, ptr %11, i64 -4
  store i32 %5, ptr %17, align 4, !tbaa !60
  %.not1218.i.i = icmp eq i32 %.0.i16.i.i.ph, %5
  br i1 %.not1218.i.i, label %_ZN6vectorI10ptr_vectorI4exprELb1EjE7reserveEj.exit, label %.lr.ph.preheader.i.i

.lr.ph.preheader.i.i:                             ; preds = %16
  %18 = zext i32 %5 to i64
  %19 = zext i32 %.0.i16.i.i.ph to i64
  %20 = getelementptr %class.ptr_vector, ptr %11, i64 %19
  %21 = sub nsw i64 %18, %19
  %22 = shl nsw i64 %21, 3
  tail call void @llvm.memset.p0.i64(ptr align 8 %20, i8 0, i64 %22, i1 false), !tbaa !59
  br label %_ZN6vectorI10ptr_vectorI4exprELb1EjE7reserveEj.exit

_ZN6vectorI10ptr_vectorI4exprELb1EjE7reserveEj.exit: ; preds = %_ZNK6vectorI10ptr_vectorI4exprELb1EjE4sizeEv.exit.thread.i, %16, %.lr.ph.preheader.i.i
  %23 = phi ptr [ %6, %_ZNK6vectorI10ptr_vectorI4exprELb1EjE4sizeEv.exit.thread.i ], [ %11, %16 ], [ %11, %.lr.ph.preheader.i.i ]
  %24 = zext i32 %3 to i64
  %25 = getelementptr inbounds nuw %class.ptr_vector, ptr %23, i64 %24
  %26 = load ptr, ptr %25, align 8, !tbaa !59
  %27 = icmp eq ptr %26, null
  br i1 %27, label %_ZNK6vectorIP4exprLb0EjE5emptyEv.exit.thread, label %_ZNK6vectorIP4exprLb0EjE5emptyEv.exit

_ZNK6vectorIP4exprLb0EjE5emptyEv.exit:            ; preds = %_ZN6vectorI10ptr_vectorI4exprELb1EjE7reserveEj.exit
  %28 = getelementptr inbounds i8, ptr %26, i64 -4
  %29 = load i32, ptr %28, align 4, !tbaa !60
  %30 = icmp eq i32 %29, 0
  br i1 %30, label %_ZNK6vectorIP4exprLb0EjE5emptyEv.exit.thread, label %33

_ZNK6vectorIP4exprLb0EjE5emptyEv.exit.thread:     ; preds = %_ZN6vectorI10ptr_vectorI4exprELb1EjE7reserveEj.exit, %_ZNK6vectorIP4exprLb0EjE5emptyEv.exit
  tail call void @_ZN3sls8bv_terms17register_uninterpEP4expr(ptr noundef nonnull align 8 dereferenceable(64) %0, ptr noundef nonnull %1)
  %31 = load ptr, ptr %4, align 8, !tbaa !138
  %32 = getelementptr inbounds nuw %class.ptr_vector, ptr %31, i64 %24
  br label %33

33:                                               ; preds = %_ZNK6vectorIP4exprLb0EjE5emptyEv.exit, %_ZNK6vectorIP4exprLb0EjE5emptyEv.exit.thread
  %.0 = phi ptr [ %32, %_ZNK6vectorIP4exprLb0EjE5emptyEv.exit.thread ], [ %25, %_ZNK6vectorIP4exprLb0EjE5emptyEv.exit ]
  ret ptr %.0
}